; Function Attrs: mustprogress uwtable
define noundef zeroext i1 @_ZNK8facebook5velox16JsonCastOperator19isSupportedFromTypeERKSt10shared_ptrIKNS0_4TypeEE(ptr noundef nonnull align 8 dereferenceable(8) %this, ptr nocapture noundef nonnull readonly align 8 dereferenceable(16) %other) unnamed_addr #0 align 2 {
entry:
  %other.val = load ptr, ptr %other, align 8
  %0 = getelementptr i8, ptr %other.val, i64 16
  %other.val.val = load i8, ptr %0, align 8
  %switch.i = icmp ult i8 %other.val.val, 8
  br i1 %switch.i, label %return, label %if.end

if.end:                                           ; preds = %entry
  switch i8 %other.val.val, label %sw.default [
    i8 33, label %return
    i8 9, label %return
    i8 30, label %sw.bb4
    i8 32, label %sw.bb10
    i8 31, label %sw.bb25
  ]

sw.bb4:                                           ; preds = %if.end
  %vtable = load ptr, ptr %other.val, align 8
  %vfn = getelementptr inbounds i8, ptr %vtable, i64 24
  %1 = load ptr, ptr %vfn, align 8
  %call6 = tail call noundef nonnull align 8 dereferenceable(16) ptr %1(ptr noundef nonnull align 8 dereferenceable(8) %other.val, i32 noundef 0)
  %vtable7 = load ptr, ptr %this, align 8
  %vfn8 = getelementptr inbounds i8, ptr %vtable7, i64 16
  %2 = load ptr, ptr %vfn8, align 8
  %call9 = tail call noundef zeroext i1 %2(ptr noundef nonnull align 8 dereferenceable(8) %this, ptr noundef nonnull align 8 dereferenceable(16) %call6)
  br label %return

sw.bb10:                                          ; preds = %if.end
  %3 = tail call ptr @__dynamic_cast(ptr nonnull %other.val, ptr nonnull @_ZTIN8facebook5velox4TypeE, ptr nonnull @_ZTIN8facebook5velox7RowTypeE, i64 0) #33
  %4 = icmp eq ptr %3, null
  br i1 %4, label %dynamic_cast.bad_cast.i, label %_ZNK8facebook5velox4Type2asILNS0_8TypeKindE32EEERKNS0_10TypeTraitsIXT_EE8ImplTypeEv.exit

dynamic_cast.bad_cast.i:                          ; preds = %sw.bb10
  tail call void @__cxa_bad_cast() #34
  unreachable

_ZNK8facebook5velox4Type2asILNS0_8TypeKindE32EEERKNS0_10TypeTraitsIXT_EE8ImplTypeEv.exit: ; preds = %sw.bb10
  %children_.i = getelementptr inbounds i8, ptr %3, i64 48
  %5 = load ptr, ptr %children_.i, align 8
  %_M_finish.i = getelementptr inbounds i8, ptr %3, i64 56
  %6 = load ptr, ptr %_M_finish.i, align 8
  %cmp.i.not10 = icmp eq ptr %5, %6
  br i1 %cmp.i.not10, label %return, label %for.body

for.body:                                         ; preds = %_ZNK8facebook5velox4Type2asILNS0_8TypeKindE32EEERKNS0_10TypeTraitsIXT_EE8ImplTypeEv.exit, %for.body
  %__begin3.sroa.0.011 = phi ptr [ %incdec.ptr.i, %for.body ], [ %5, %_ZNK8facebook5velox4Type2asILNS0_8TypeKindE32EEERKNS0_10TypeTraitsIXT_EE8ImplTypeEv.exit ]
  %vtable19 = load ptr, ptr %this, align 8
  %vfn20 = getelementptr inbounds i8, ptr %vtable19, i64 16
  %7 = load ptr, ptr %vfn20, align 8
  %call21 = tail call noundef zeroext i1 %7(ptr noundef nonnull align 8 dereferenceable(8) %this, ptr noundef nonnull align 8 dereferenceable(16) %__begin3.sroa.0.011)
  %incdec.ptr.i = getelementptr inbounds i8, ptr %__begin3.sroa.0.011, i64 16
  %cmp.i.not = icmp ne ptr %incdec.ptr.i, %6
  %or.cond.not = select i1 %call21, i1 %cmp.i.not, i1 false
  br i1 %or.cond.not, label %for.body, label %return

sw.bb25:                                          ; preds = %if.end
  %vtable27 = load ptr, ptr %other.val, align 8
  %vfn28 = getelementptr inbounds i8, ptr %vtable27, i64 24
  %8 = load ptr, ptr %vfn28, align 8
  %call29 = tail call noundef nonnull align 8 dereferenceable(16) ptr %8(ptr noundef nonnull align 8 dereferenceable(8) %other.val, i32 noundef 0)
  %call29.val = load ptr, ptr %call29, align 8
  %9 = getelementptr i8, ptr %call29.val, i64 16
  %call29.val.val = load i8, ptr %9, align 8
  %switch.i7 = icmp ult i8 %call29.val.val, 8
  br i1 %switch.i7, label %land.rhs, label %return

land.rhs:                                         ; preds = %sw.bb25
  %10 = load ptr, ptr %other, align 8
  %vtable32 = load ptr, ptr %10, align 8
  %vfn33 = getelementptr inbounds i8, ptr %vtable32, i64 24
  %11 = load ptr, ptr %vfn33, align 8
  %call34 = tail call noundef nonnull align 8 dereferenceable(16) ptr %11(ptr noundef nonnull align 8 dereferenceable(8) %10, i32 noundef 1)
  %vtable35 = load ptr, ptr %this, align 8
  %vfn36 = getelementptr inbounds i8, ptr %vtable35, i64 16
  %12 = load ptr, ptr %vfn36, align 8
  %call37 = tail call noundef zeroext i1 %12(ptr noundef nonnull align 8 dereferenceable(8) %this, ptr noundef nonnull align 8 dereferenceable(16) %call34)
  br label %return

sw.default:                                       ; preds = %if.end
  br label %return

return:                                           ; preds = %for.body, %_ZNK8facebook5velox4Type2asILNS0_8TypeKindE32EEERKNS0_10TypeTraitsIXT_EE8ImplTypeEv.exit, %sw.bb25, %land.rhs, %if.end, %if.end, %entry, %sw.default, %sw.bb4
  %retval.0 = phi i1 [ false, %sw.default ], [ %call9, %sw.bb4 ], [ true, %entry ], [ true, %if.end ], [ true, %if.end ], [ false, %sw.bb25 ], [ %call37, %land.rhs ], [ true, %_ZNK8facebook5velox4Type2asILNS0_8TypeKindE32EEERKNS0_10TypeTraitsIXT_EE8ImplTypeEv.exit ], [ %call21, %for.body ]
  ret i1 %retval.0
}